target datalayout = "e-m:e-p270:32:32-p271:32:32-p272:64:64-i64:64-i128:128-f80:128-n8:16:32:64-S128"
target triple = "x86_64-pc-linux-gnu"

%struct.CPpmd7z_RangeDec = type { %struct.IPpmd7_RangeDec, i32, i32, i32, i32, ptr }
%struct.IPpmd7_RangeDec = type { ptr, ptr, ptr }
%struct.IByteIn = type { ptr, ptr }

; Function Attrs: nounwind uwtable
define internal void @Range_Normalize(ptr noundef %0) #0 {
  %2 = alloca ptr, align 8
  store ptr %0, ptr %2, align 8, !tbaa !4
  br label %3

3:                                                ; preds = %1, %38
  %4 = load ptr, ptr %2, align 8, !tbaa !4
  %5 = getelementptr inbounds nuw %struct.CPpmd7z_RangeDec, ptr %4, i32 0, i32 3
  %6 = load i32, ptr %5, align 8, !tbaa !102
  %7 = load ptr, ptr %2, align 8, !tbaa !4
  %8 = getelementptr inbounds nuw %struct.CPpmd7z_RangeDec, ptr %7, i32 0, i32 3
  %9 = load i32, ptr %8, align 8, !tbaa !102
  %10 = load ptr, ptr %2, align 8, !tbaa !4
  %11 = getelementptr inbounds nuw %struct.CPpmd7z_RangeDec, ptr %10, i32 0, i32 1
  %12 = load i32, ptr %11, align 8, !tbaa !103
  %13 = add i32 %9, %12
  %14 = xor i32 %6, %13
  %15 = icmp uge i32 %14, 16777216
  br i1 %15, label %16, label %38

16:                                               ; preds = %3
  %17 = load ptr, ptr %2, align 8, !tbaa !4
  %18 = getelementptr inbounds nuw %struct.CPpmd7z_RangeDec, ptr %17, i32 0, i32 1
  %19 = load i32, ptr %18, align 8, !tbaa !103
  %20 = load ptr, ptr %2, align 8, !tbaa !4
  %21 = getelementptr inbounds nuw %struct.CPpmd7z_RangeDec, ptr %20, i32 0, i32 4
  %22 = load i32, ptr %21, align 4, !tbaa !37
  %23 = icmp uge i32 %19, %22
  br i1 %23, label %24, label %25

24:                                               ; preds = %16
  br label %64

25:                                               ; preds = %16
  %26 = load ptr, ptr %2, align 8, !tbaa !4
  %27 = getelementptr inbounds nuw %struct.CPpmd7z_RangeDec, ptr %26, i32 0, i32 3
  %28 = load i32, ptr %27, align 8, !tbaa !102
  %29 = sub nsw i32 0, %28
  %30 = load ptr, ptr %2, align 8, !tbaa !4
  %31 = getelementptr inbounds nuw %struct.CPpmd7z_RangeDec, ptr %30, i32 0, i32 4
  %32 = load i32, ptr %31, align 4, !tbaa !37
  %33 = sub i32 %32, 1
  %34 = and i32 %29, %33
  %35 = load ptr, ptr %2, align 8, !tbaa !4
  %36 = getelementptr inbounds nuw %struct.CPpmd7z_RangeDec, ptr %35, i32 0, i32 1
  store i32 %34, ptr %36, align 8, !tbaa !103
  br label %37

37:                                               ; preds = %25
  br label %38

38:                                               ; preds = %37, %3
  %39 = load ptr, ptr %2, align 8, !tbaa !4
  %40 = getelementptr inbounds nuw %struct.CPpmd7z_RangeDec, ptr %39, i32 0, i32 2
  %41 = load i32, ptr %40, align 4, !tbaa !101
  %42 = shl i32 %41, 8
  %43 = load ptr, ptr %2, align 8, !tbaa !4
  %44 = getelementptr inbounds nuw %struct.CPpmd7z_RangeDec, ptr %43, i32 0, i32 5
  %45 = load ptr, ptr %44, align 8, !tbaa !33
  %46 = getelementptr inbounds nuw %struct.IByteIn, ptr %45, i32 0, i32 1
  %47 = load ptr, ptr %46, align 8, !tbaa !34
  %48 = load ptr, ptr %2, align 8, !tbaa !4
  %49 = getelementptr inbounds nuw %struct.CPpmd7z_RangeDec, ptr %48, i32 0, i32 5
  %50 = load ptr, ptr %49, align 8, !tbaa !33
  %51 = call zeroext i8 %47(ptr noundef %50)
  %52 = zext i8 %51 to i32
  %53 = or i32 %42, %52
  %54 = load ptr, ptr %2, align 8, !tbaa !4
  %55 = getelementptr inbounds nuw %struct.CPpmd7z_RangeDec, ptr %54, i32 0, i32 2
  store i32 %53, ptr %55, align 4, !tbaa !101
  %56 = load ptr, ptr %2, align 8, !tbaa !4
  %57 = getelementptr inbounds nuw %struct.CPpmd7z_RangeDec, ptr %56, i32 0, i32 1
  %58 = load i32, ptr %57, align 8, !tbaa !103
  %59 = shl i32 %58, 8
  store i32 %59, ptr %57, align 8, !tbaa !103
  %60 = load ptr, ptr %2, align 8, !tbaa !4
  %61 = getelementptr inbounds nuw %struct.CPpmd7z_RangeDec, ptr %60, i32 0, i32 3
  %62 = load i32, ptr %61, align 8, !tbaa !102
  %63 = shl i32 %62, 8
  store i32 %63, ptr %61, align 8, !tbaa !102
  br label %3

64:                                               ; preds = %24
  ret void
}

; Function Attrs: nounwind uwtable
define internal void @Range_Decode_RAR(ptr noundef %0, i32 noundef %1, i32 noundef %2) #0 {
  %4 = alloca ptr, align 8
  %5 = alloca i32, align 4
  %6 = alloca i32, align 4
  %7 = alloca ptr, align 8
  store ptr %0, ptr %4, align 8, !tbaa !4
  store i32 %1, ptr %5, align 4, !tbaa !15
  store i32 %2, ptr %6, align 4, !tbaa !15
  call void @llvm.lifetime.start.p0(i64 8, ptr %7) #6
  %8 = load ptr, ptr %4, align 8, !tbaa !4
  store ptr %8, ptr %7, align 8, !tbaa !4
  %9 = load i32, ptr %5, align 4, !tbaa !15
  %10 = load ptr, ptr %7, align 8, !tbaa !4
  %11 = getelementptr inbounds nuw %struct.CPpmd7z_RangeDec, ptr %10, i32 0, i32 1
  %12 = load i32, ptr %11, align 8, !tbaa !103
  %13 = mul i32 %9, %12
  %14 = load ptr, ptr %7, align 8, !tbaa !4
  %15 = getelementptr inbounds nuw %struct.CPpmd7z_RangeDec, ptr %14, i32 0, i32 3
  %16 = load i32, ptr %15, align 8, !tbaa !102
  %17 = add i32 %16, %13
  store i32 %17, ptr %15, align 8, !tbaa !102
  %18 = load i32, ptr %6, align 4, !tbaa !15
  %19 = load ptr, ptr %7, align 8, !tbaa !4
  %20 = getelementptr inbounds nuw %struct.CPpmd7z_RangeDec, ptr %19, i32 0, i32 1
  %21 = load i32, ptr %20, align 8, !tbaa !103
  %22 = mul i32 %21, %18
  store i32 %22, ptr %20, align 8, !tbaa !103
  %23 = load ptr, ptr %7, align 8, !tbaa !4
  call void @Range_Normalize(ptr noundef %23)
  call void @llvm.lifetime.end.p0(i64 8, ptr %7) #6
  ret void
}