; Function Attrs: nounwind uwtable
define internal void @Range_Decode_RAR(ptr noundef captures(none) %0, i32 noundef %1, i32 noundef %2) #4 {
  %4 = getelementptr inbounds nuw i8, ptr %0, i64 24
  %5 = load i32, ptr %4, align 8, !tbaa !37
  %6 = mul i32 %5, %1
  %7 = getelementptr inbounds nuw i8, ptr %0, i64 32
  %8 = load i32, ptr %7, align 8, !tbaa !36
  %9 = add i32 %8, %6
  store i32 %9, ptr %7, align 8, !tbaa !36
  %10 = mul i32 %5, %2
  store i32 %10, ptr %4, align 8, !tbaa !37
  %11 = getelementptr inbounds nuw i8, ptr %0, i64 36
  %12 = getelementptr inbounds nuw i8, ptr %0, i64 28
  %13 = getelementptr inbounds nuw i8, ptr %0, i64 40
  br label %14

14:                                               ; preds = %26, %3
  %15 = phi i32 [ %36, %26 ], [ %10, %3 ]
  %16 = phi i32 [ %38, %26 ], [ %9, %3 ]
  %17 = add i32 %16, %15
  %18 = xor i32 %17, %16
  %19 = icmp ugt i32 %18, 16777215
  br i1 %19, label %20, label %26

20:                                               ; preds = %14
  %21 = load i32, ptr %11, align 4, !tbaa !35
  %.not.i = icmp ult i32 %15, %21
  br i1 %.not.i, label %22, label %Range_Normalize.exit

22:                                               ; preds = %20
  %23 = sub nsw i32 0, %16
  %24 = add i32 %21, -1
  %25 = and i32 %24, %23
  store i32 %25, ptr %4, align 8, !tbaa !37
  br label %26

26:                                               ; preds = %22, %14
  %27 = load i32, ptr %12, align 4, !tbaa !38
  %28 = shl i32 %27, 8
  %29 = load ptr, ptr %13, align 8, !tbaa !31
  %30 = getelementptr inbounds nuw i8, ptr %29, i64 8
  %31 = load ptr, ptr %30, align 8, !tbaa !32
  %32 = tail call zeroext i8 %31(ptr noundef %29) #13
  %33 = zext i8 %32 to i32
  %34 = or disjoint i32 %28, %33
  store i32 %34, ptr %12, align 4, !tbaa !38
  %35 = load i32, ptr %4, align 8, !tbaa !37
  %36 = shl i32 %35, 8
  store i32 %36, ptr %4, align 8, !tbaa !37
  %37 = load i32, ptr %7, align 8, !tbaa !36
  %38 = shl i32 %37, 8
  store i32 %38, ptr %7, align 8, !tbaa !36
  br label %14

Range_Normalize.exit:                             ; preds = %20
  ret void
}